target datalayout = "e-m:e-p270:32:32-p271:32:32-p272:64:64-i64:64-i128:128-f80:128-n8:16:32:64-S128"
target triple = "x86_64-pc-linux-gnu"

%class.b3Generic6DofConstraint = type { %class.b3TypedConstraint, %class.b3Transform, %class.b3Transform, %class.b3TranslationalLimitMotor, [3 x %class.b3RotationalLimitMotor], %class.b3Transform, %class.b3Transform, %class.b3Vector3, [3 x %class.b3Vector3], %class.b3Vector3, float, float, float, i8, %class.b3Vector3, i8, i8, i32, [8 x i8] }
%class.b3TypedConstraint = type { ptr, %struct.b3TypedObject, i32, %union.anon, float, i8, i8, i32, i32, i32, float, float, ptr }
%struct.b3TypedObject = type { i32 }
%union.anon = type { ptr }
%class.b3TranslationalLimitMotor = type { %class.b3Vector3, %class.b3Vector3, %class.b3Vector3, %class.b3Vector3, %class.b3Vector3, %class.b3Vector3, %class.b3Vector3, %class.b3Vector3, %class.b3Vector3, %class.b3Vector3, float, float, float, [3 x i8], [3 x i32], [4 x i8] }
%class.b3RotationalLimitMotor = type { float, float, float, float, float, float, float, float, float, float, float, i8, float, float, i32, float }
%class.b3Transform = type { %class.b3Matrix3x3, %class.b3Vector3 }
%class.b3Matrix3x3 = type { [3 x %class.b3Vector3] }
%class.b3Vector3 = type { %union.anon.0 }
%union.anon.0 = type { [4 x float] }

; Function Attrs: mustprogress nounwind uwtable
define dso_local { <2 x float>, <2 x float> } @_ZNK23b3Generic6DofConstraint7getAxisEi(ptr noundef nonnull align 16 dereferenceable(824) %0, i32 noundef %1) #3 align 2 {
  %3 = alloca %class.b3Vector3, align 16
  %4 = alloca ptr, align 8
  %5 = alloca i32, align 4
  store ptr %0, ptr %4, align 8, !tbaa !4
  store i32 %1, ptr %5, align 4, !tbaa !9
  %6 = load ptr, ptr %4, align 8
  %7 = getelementptr inbounds nuw %class.b3Generic6DofConstraint, ptr %6, i32 0, i32 8
  %8 = load i32, ptr %5, align 4, !tbaa !9
  %9 = sext i32 %8 to i64
  %10 = getelementptr inbounds [3 x %class.b3Vector3], ptr %7, i64 0, i64 %9
  call void @llvm.memcpy.p0.p0.i64(ptr align 16 %3, ptr align 16 %10, i64 16, i1 false), !tbaa.struct !33
  %11 = getelementptr inbounds nuw %class.b3Vector3, ptr %3, i32 0, i32 0
  %12 = getelementptr inbounds nuw %union.anon.0, ptr %11, i32 0, i32 0
  %13 = load { <2 x float>, <2 x float> }, ptr %12, align 16
  ret { <2 x float>, <2 x float> } %13
}