; Function Attrs: mustprogress nofree norecurse nosync nounwind willreturn memory(argmem: read) uwtable
define dso_local { <2 x float>, <2 x float> } @_ZNK23b3Generic6DofConstraint7getAxisEi(ptr noundef nonnull readonly align 16 captures(none) dereferenceable(824) %0, i32 noundef %1) local_unnamed_addr #3 align 2 {
  %3 = getelementptr inbounds nuw i8, ptr %0, i64 720
  %4 = sext i32 %1 to i64
  %5 = getelementptr inbounds [3 x %class.b3Vector3], ptr %3, i64 0, i64 %4
  %.sroa.0.0.copyload = load <2 x float>, ptr %5, align 16
  %.sroa.2.0..sroa_idx = getelementptr inbounds nuw i8, ptr %5, i64 8
  %.sroa.2.0.copyload = load <2 x float>, ptr %.sroa.2.0..sroa_idx, align 8, !tbaa !8
  %.fca.0.insert = insertvalue { <2 x float>, <2 x float> } poison, <2 x float> %.sroa.0.0.copyload, 0
  %.fca.1.insert = insertvalue { <2 x float>, <2 x float> } %.fca.0.insert, <2 x float> %.sroa.2.0.copyload, 1
  ret { <2 x float>, <2 x float> } %.fca.1.insert
}